ccopy_reg
_reconstructor
p0
(csymbtools.core
Container
p1
c__builtin__
object
p2
Ntp3
Rp4
(dp5
S'results_no_chains'
p6
(lp7
(cnumpy.core.multiarray
scalar
p8
(cnumpy
dtype
p9
(S'b1'
p10
I0
I1
tp11
Rp12
(I3
S'|'
p13
NNNI-1
I-1
I0
tp14
bS'\x01'
p15
tp16
Rp17
I40
F5.715029954910278
tp18
a(g17
I40
F4.151907920837402
tp19
a(g17
I40
F4.1446309089660645
tp20
a(g17
I40
F5.9016358852386475
tp21
a(g17
I40
F5.867333889007568
tp22
a(g17
I40
F5.769201993942261
tp23
a(g17
I40
F5.734502077102661
tp24
a(g17
I40
F5.787443161010742
tp25
a(g17
I40
F5.788239002227783
tp26
a(g17
I40
F5.491247177124023
tp27
a(g17
I40
F8.25888204574585
tp28
a(g17
I40
F4.183231830596924
tp29
a(g17
I40
F5.729238033294678
tp30
a(g17
I40
F6.132599115371704
tp31
a(g17
I40
F5.700968980789185
tp32
a(g17
I40
F4.090497970581055
tp33
a(g17
I40
F4.106804847717285
tp34
a(g17
I40
F4.107332229614258
tp35
a(g17
I40
F5.769442081451416
tp36
a(g17
I40
F5.773162841796875
tp37
a(g17
I40
F5.810050010681152
tp38
a(g17
I40
F5.70133900642395
tp39
a(g17
I40
F5.819736003875732
tp40
a(g17
I40
F5.811929941177368
tp41
a(g17
I40
F5.848487138748169
tp42
a(g17
I40
F5.692233085632324
tp43
a(g17
I40
F5.861268997192383
tp44
a(g17
I40
F5.729336977005005
tp45
a(g17
I40
F5.760347127914429
tp46
a(g17
I40
F5.799331903457642
tp47
a(g17
I40
F5.812160015106201
tp48
a(g17
I40
F5.8730552196502686
tp49
a(g17
I40
F5.997768878936768
tp50
a(g17
I40
F4.145639896392822
tp51
a(g17
I40
F5.762701988220215
tp52
a(g17
I40
F4.094306945800781
tp53
a(g17
I40
F4.279170036315918
tp54
a(g17
I40
F8.154372930526733
tp55
a(g17
I40
F5.8219780921936035
tp56
a(g17
I40
F5.635655879974365
tp57
a(g17
I40
F4.117883920669556
tp58
a(g17
I40
F5.525820970535278
tp59
a(g17
I40
F5.7602410316467285
tp60
a(g17
I40
F5.687067031860352
tp61
a(g17
I40
F4.085808992385864
tp62
a(g17
I40
F4.1347291469573975
tp63
a(g17
I40
F5.895226955413818
tp64
a(g17
I40
F5.8742570877075195
tp65
a(g17
I40
F5.899068832397461
tp66
a(g17
I40
F5.8067028522491455
tp67
a(g17
I40
F5.772912979125977
tp68
a(g17
I40
F5.824948072433472
tp69
a(g17
I40
F4.288240194320679
tp70
a(g17
I40
F5.810924053192139
tp71
a(g17
I40
F5.817496061325073
tp72
a(g17
I40
F5.7778332233428955
tp73
a(g17
I40
F5.755064010620117
tp74
a(g17
I40
F5.746126890182495
tp75
a(g17
I40
F4.150506973266602
tp76
a(g17
I40
F4.424687147140503
tp77
a(g17
I40
F4.127809047698975
tp78
a(g17
I40
F5.852581977844238
tp79
a(g17
I40
F5.659857988357544
tp80
a(g17
I40
F5.796105146408081
tp81
a(g17
I40
F4.393790006637573
tp82
a(g17
I40
F5.612107038497925
tp83
a(g17
I40
F5.771087884902954
tp84
a(g17
I40
F4.219274997711182
tp85
a(g17
I40
F4.074779033660889
tp86
a(g17
I40
F4.392561912536621
tp87
a(g17
I40
F5.941164970397949
tp88
a(g17
I40
F5.867437839508057
tp89
a(g17
I40
F5.8000547885894775
tp90
a(g17
I40
F5.830962181091309
tp91
a(g17
I40
F5.7816321849823
tp92
a(g17
I40
F5.845367908477783
tp93
a(g17
I40
F9.906251907348633
tp94
a(g17
I40
F5.751646041870117
tp95
a(g17
I40
F5.757705926895142
tp96
a(g17
I40
F5.735980987548828
tp97
a(g17
I40
F9.531899213790894
tp98
a(g17
I40
F5.871079921722412
tp99
a(g17
I40
F5.816051006317139
tp100
a(g17
I40
F5.79311990737915
tp101
a(g17
I40
F5.733123064041138
tp102
a(g17
I40
F4.174114942550659
tp103
a(g17
I40
F5.838215112686157
tp104
a(g17
I40
F5.914833068847656
tp105
a(g17
I40
F5.819571018218994
tp106
a(g17
I40
F4.109161853790283
tp107
a(g17
I40
F5.75964093208313
tp108
a(g17
I40
F4.171349048614502
tp109
a(g17
I40
F5.629292964935303
tp110
a(g17
I40
F5.8827290534973145
tp111
a(g17
I40
F4.146423101425171
tp112
a(g17
I40
F5.741214990615845
tp113
a(g17
I40
F5.760483980178833
tp114
a(g17
I40
F5.872776031494141
tp115
a(g17
I40
F5.802765130996704
tp116
a(g17
I40
F5.5656421184539795
tp117
asS'results_chains'
p118
(lp119
(g17
I80
F42.182414054870605
tp120
a(g8
(g12
S'\x00'
p121
tp122
Rp123
I160
F265.01250100135803
tp124
a(g17
I40
F7.844759941101074
tp125
a(g17
I80
F41.2519109249115
tp126
a(g123
I160
F170.16045594215393
tp127
a(g17
I40
F5.834987163543701
tp128
a(g123
I160
F150.9480700492859
tp129
a(g17
I40
F5.839818000793457
tp130
a(g17
I80
F43.18220019340515
tp131
a(g17
I80
F36.32019019126892
tp132
a(g17
I80
F15.014142036437988
tp133
a(g17
I40
F5.9565839767456055
tp134
a(g17
I40
F5.137995004653931
tp135
a(g17
I80
F42.13259291648865
tp136
a(g17
I80
F41.341456174850464
tp137
a(g17
I40
F3.658297061920166
tp138
a(g123
I160
F141.31539392471313
tp139
a(g17
I40
F6.020364046096802
tp140
a(g17
I160
F238.44757509231567
tp141
a(g17
I80
F41.893511056900024
tp142
a(g17
I160
F251.1580080986023
tp143
a(g17
I80
F35.40764904022217
tp144
a(g17
I40
F9.713762044906616
tp145
a(g123
I160
F198.1464240550995
tp146
a(g123
I160
F157.6102738380432
tp147
a(g123
I160
F170.86829590797424
tp148
a(g17
I40
F6.099905014038086
tp149
a(g17
I80
F40.16649889945984
tp150
a(g123
I160
F218.98222017288208
tp151
a(g17
I80
F41.939337968826294
tp152
a(g123
I160
F248.7481050491333
tp153
a(g17
I80
F40.78406620025635
tp154
a(g17
I80
F40.816718101501465
tp155
a(g17
I40
F5.982692003250122
tp156
a(g17
I40
F5.99173903465271
tp157
a(g123
I160
F116.5828800201416
tp158
a(g123
I160
F246.54191899299622
tp159
a(g17
I80
F40.260550022125244
tp160
a(g17
I80
F35.75964379310608
tp161
a(g17
I80
F41.86786603927612
tp162
a(g17
I40
F5.927760124206543
tp163
a(g17
I80
F35.08838081359863
tp164
a(g17
I80
F41.29495620727539
tp165
a(g17
I20
F2.6328909397125244
tp166
a(g17
I160
F154.76484203338623
tp167
a(g17
I80
F36.716304063797
tp168
a(g17
I80
F40.680639028549194
tp169
a(g17
I80
F38.472042083740234
tp170
a(g17
I40
F6.430291175842285
tp171
a(g17
I40
F7.8736889362335205
tp172
a(g17
I40
F6.048771142959595
tp173
a(g17
I80
F42.744147062301636
tp174
a(g17
I40
F4.932408094406128
tp175
a(g123
I160
F97.88394904136658
tp176
a(g17
I40
F6.030302047729492
tp177
a(g17
I80
F39.567057847976685
tp178
a(g17
I160
F134.55693101882935
tp179
a(g17
I40
F5.961504936218262
tp180
a(g123
I160
F264.2283420562744
tp181
a(g123
I160
F218.5644931793213
tp182
a(g17
I40
F5.961100816726685
tp183
a(g123
I160
F83.09444379806519
tp184
a(g17
I40
F5.674187183380127
tp185
a(g123
I160
F264.3482849597931
tp186
a(g17
I80
F44.070306062698364
tp187
a(g17
I40
F8.559263944625854
tp188
a(g17
I40
F6.081058979034424
tp189
a(g17
I80
F40.792481899261475
tp190
a(g17
I40
F8.00598406791687
tp191
a(g17
I80
F42.45909881591797
tp192
a(g17
I160
F256.3727459907532
tp193
a(g17
I40
F10.021233081817627
tp194
a(g17
I40
F9.74497103691101
tp195
a(g17
I80
F36.71539092063904
tp196
a(g17
I40
F6.09456992149353
tp197
a(g17
I40
F6.045100212097168
tp198
a(g17
I40
F5.914644956588745
tp199
a(g17
I40
F6.658961057662964
tp200
a(g17
I40
F10.912113904953003
tp201
a(g17
I40
F4.99036717414856
tp202
a(g17
I80
F42.33695316314697
tp203
a(g17
I40
F6.318741083145142
tp204
a(g17
I40
F10.232528924942017
tp205
a(g17
I40
F6.055984973907471
tp206
a(g17
I40
F3.9805290699005127
tp207
a(g17
I80
F34.673583984375
tp208
a(g17
I40
F6.026121139526367
tp209
a(g17
I80
F35.87886595726013
tp210
a(g123
I160
F197.89752793312073
tp211
a(g17
I40
F8.15901494026184
tp212
a(g17
I40
F10.221669912338257
tp213
a(g17
I40
F4.076763868331909
tp214
a(g17
I40
F6.718474864959717
tp215
a(g17
I40
F6.323682069778442
tp216
a(g123
I160
F172.12239789962769
tp217
a(g17
I40
F10.454730033874512
tp218
a(g17
I80
F43.52152681350708
tp219
a(g123
I160
F231.01163911819458
tp220
a(g17
I80
F40.53404688835144
tp221
a(g17
I80
F34.71187114715576
tp222
asb.