ccopy_reg
_reconstructor
p0
(csymbtools.core
Container
p1
c__builtin__
object
p2
Ntp3
Rp4
(dp5
S'results_no_chains'
p6
(lp7
(I01
I40
F12.365209817886353
tp8
a(I01
I160
F115.85676193237305
tp9
a(I01
I160
F114.95353412628174
tp10
a(I00
I160
F485.72711205482483
tp11
a(I01
I40
F12.374582052230835
tp12
a(I00
I160
F492.6908359527588
tp13
a(I01
I40
F12.317919969558716
tp14
a(I01
I40
F12.349411010742188
tp15
a(I01
I40
F12.355633020401001
tp16
a(I01
I40
F12.344248056411743
tp17
a(I01
I160
F115.78834009170532
tp18
a(I01
I160
F115.23779892921448
tp19
a(I01
I40
F12.422057151794434
tp20
a(I00
I160
F485.90473198890686
tp21
a(I01
I160
F116.14103817939758
tp22
a(I01
I40
F12.2881760597229
tp23
a(I01
I160
F115.98519897460938
tp24
a(I01
I160
F114.78759098052979
tp25
a(I01
I40
F12.27807092666626
tp26
a(I01
I40
F12.391654014587402
tp27
a(I00
I160
F483.59062099456787
tp28
a(I01
I40
F12.315719842910767
tp29
a(I00
I160
F486.3923442363739
tp30
a(I00
I160
F490.90306997299194
tp31
a(I00
I160
F493.6583800315857
tp32
a(I01
I40
F12.524845123291016
tp33
a(I00
I160
F494.9922161102295
tp34
a(I01
I40
F12.473542928695679
tp35
a(I00
I160
F534.8026900291443
tp36
a(I00
I160
F527.2771229743958
tp37
a(I00
I160
F480.7017798423767
tp38
a(I00
I160
F487.0371730327606
tp39
a(I00
I160
F486.5244519710541
tp40
a(I01
I160
F115.64414191246033
tp41
a(I00
I160
F394.1337399482727
tp42
a(I01
I160
F115.75789308547974
tp43
a(I01
I160
F116.68229508399963
tp44
a(I01
I160
F116.07716703414917
tp45
a(I00
I160
F482.6812379360199
tp46
a(I01
I160
F115.35444498062134
tp47
a(I01
I160
F114.98708295822144
tp48
a(I01
I160
F115.20538997650146
tp49
a(I00
I160
F483.1419608592987
tp50
a(I01
I40
F12.33069896697998
tp51
a(I01
I160
F114.84255290031433
tp52
a(I01
I160
F115.4241349697113
tp53
a(I01
I40
F12.442112922668457
tp54
a(I00
I160
F489.7207019329071
tp55
a(I00
I160
F495.36985301971436
tp56
a(I01
I40
F12.500918865203857
tp57
a(I01
I40
F12.434118032455444
tp58
a(I01
I40
F12.502929925918579
tp59
a(I01
I160
F116.03439998626709
tp60
a(I00
I160
F490.14479899406433
tp61
a(I01
I40
F12.57140302658081
tp62
a(I00
I160
F492.3485598564148
tp63
a(I01
I40
F12.39872407913208
tp64
a(I00
I160
F520.9636979103088
tp65
a(I01
I160
F115.99792194366455
tp66
a(I01
I160
F116.22324109077454
tp67
a(I01
I160
F114.87881994247437
tp68
a(I00
I160
F498.2829580307007
tp69
a(I01
I40
F12.383827924728394
tp70
a(I01
I40
F12.441313982009888
tp71
a(I01
I160
F115.8348171710968
tp72
a(I01
I160
F115.62849307060242
tp73
a(I01
I40
F12.529284954071045
tp74
a(I01
I160
F115.79234099388123
tp75
a(I01
I160
F116.41934895515442
tp76
a(I01
I160
F115.4983069896698
tp77
a(I00
I160
F484.0247890949249
tp78
a(I00
I160
F480.04639196395874
tp79
a(I01
I40
F12.41173005104065
tp80
a(I01
I40
F12.322077989578247
tp81
a(I01
I40
F12.5361168384552
tp82
a(I01
I40
F12.385686874389648
tp83
a(I01
I160
F115.79193782806396
tp84
a(I01
I40
F12.412484884262085
tp85
a(I00
I160
F501.0389358997345
tp86
a(I01
I160
F114.40703392028809
tp87
a(I01
I160
F114.56863188743591
tp88
a(I00
I160
F522.3280348777771
tp89
a(I00
I160
F527.7527899742126
tp90
a(I01
I40
F12.442847967147827
tp91
a(I01
I40
F12.481650114059448
tp92
a(I01
I160
F114.51570105552673
tp93
a(I01
I40
F12.307556867599487
tp94
a(I01
I40
F12.29132604598999
tp95
a(I01
I40
F12.336062908172607
tp96
a(I01
I40
F12.25233793258667
tp97
a(I01
I40
F12.357517004013062
tp98
a(I01
I160
F114.84339594841003
tp99
a(I01
I160
F115.06626605987549
tp100
a(I00
I160
F487.4639480113983
tp101
a(I01
I160
F114.70906281471252
tp102
a(I00
I160
F496.4748601913452
tp103
a(I00
I160
F481.4436020851135
tp104
a(I00
I160
F485.53847908973694
tp105
a(I01
I40
F12.344130039215088
tp106
a(I01
I160
F115.67580509185791
tp107
asS'results_chains'
p108
(lp109
(I01
I40
F1.8584818840026855
tp110
a(I01
I80
F9.779728174209595
tp111
a(I01
I20
F0.6723508834838867
tp112
a(I01
I40
F1.8362460136413574
tp113
a(I01
I40
F1.8192310333251953
tp114
a(I01
I160
F54.33898091316223
tp115
a(I01
I40
F1.8080570697784424
tp116
a(I01
I160
F54.40803909301758
tp117
a(I01
I40
F2.165894031524658
tp118
a(I01
I40
F1.821829080581665
tp119
a(I01
I40
F1.8184051513671875
tp120
a(I01
I40
F1.78727388381958
tp121
a(I01
I40
F1.8398001194000244
tp122
a(I01
I40
F1.8518078327178955
tp123
a(I01
I40
F1.8281350135803223
tp124
a(I01
I40
F1.9018340110778809
tp125
a(I01
I20
F0.6734120845794678
tp126
a(I01
I40
F1.833812952041626
tp127
a(I01
I40
F1.8704569339752197
tp128
a(I01
I40
F1.7780990600585938
tp129
a(I01
I160
F54.31370806694031
tp130
a(I01
I40
F1.767791986465454
tp131
a(I01
I40
F1.8382899761199951
tp132
a(I01
I40
F1.8262629508972168
tp133
a(I01
I40
F1.8631229400634766
tp134
a(I01
I40
F1.849869966506958
tp135
a(I01
I40
F2.005635976791382
tp136
a(I01
I40
F1.9078598022460938
tp137
a(I01
I40
F1.8492720127105713
tp138
a(I01
I40
F1.8270759582519531
tp139
a(I01
I40
F1.8486950397491455
tp140
a(I01
I40
F1.830225944519043
tp141
a(I01
I40
F1.8276920318603516
tp142
a(I01
I40
F1.83945894241333
tp143
a(I01
I40
F1.8055949211120605
tp144
a(I01
I40
F1.828064203262329
tp145
a(I01
I160
F54.77515006065369
tp146
a(I01
I40
F1.8330309391021729
tp147
a(I01
I40
F1.8408010005950928
tp148
a(I01
I40
F1.8279778957366943
tp149
a(I01
I40
F1.8467881679534912
tp150
a(I01
I40
F1.8261702060699463
tp151
a(I01
I40
F1.8395638465881348
tp152
a(I01
I40
F1.7741680145263672
tp153
a(I01
I40
F1.8113479614257812
tp154
a(I01
I40
F1.8386240005493164
tp155
a(I01
I40
F1.8175008296966553
tp156
a(I01
I40
F1.9336769580841064
tp157
a(I01
I40
F1.8477468490600586
tp158
a(I01
I160
F54.613975048065186
tp159
a(I01
I40
F1.8377959728240967
tp160
a(I01
I40
F1.8733718395233154
tp161
a(I01
I160
F49.32478404045105
tp162
a(I01
I40
F1.831362009048462
tp163
a(I01
I40
F1.8652219772338867
tp164
a(I01
I160
F48.951767921447754
tp165
a(I01
I40
F1.8259680271148682
tp166
a(I01
I40
F1.783524990081787
tp167
a(I01
I40
F1.8812499046325684
tp168
a(I01
I40
F1.8430888652801514
tp169
a(I01
I20
F0.6891839504241943
tp170
a(I01
I40
F1.8327398300170898
tp171
a(I01
I40
F1.850172996520996
tp172
a(I01
I160
F49.64233899116516
tp173
a(I01
I40
F1.8434219360351562
tp174
a(I01
I20
F0.674968957901001
tp175
a(I01
I40
F1.802873134613037
tp176
a(I01
I40
F1.8311879634857178
tp177
a(I01
I40
F1.8057379722595215
tp178
a(I01
I40
F1.8824598789215088
tp179
a(I01
I160
F55.14638805389404
tp180
a(I01
I40
F1.8375320434570312
tp181
a(I01
I40
F1.8366899490356445
tp182
a(I01
I40
F1.8157048225402832
tp183
a(I01
I40
F1.9028780460357666
tp184
a(I01
I40
F1.8884148597717285
tp185
a(I01
I40
F1.8477940559387207
tp186
a(I01
I40
F2.1124439239501953
tp187
a(I01
I160
F54.567882776260376
tp188
a(I01
I40
F1.8366351127624512
tp189
a(I01
I40
F1.827514886856079
tp190
a(I01
I40
F1.9131779670715332
tp191
a(I01
I160
F54.47048211097717
tp192
a(I01
I40
F1.9397459030151367
tp193
a(I01
I40
F1.7864840030670166
tp194
a(I01
I40
F1.8409569263458252
tp195
a(I01
I40
F1.786653995513916
tp196
a(I01
I40
F1.8218200206756592
tp197
a(I01
I40
F1.864414930343628
tp198
a(I01
I20
F0.6752371788024902
tp199
a(I01
I40
F1.912114143371582
tp200
a(I01
I40
F1.784285068511963
tp201
a(I01
I40
F2.180591106414795
tp202
a(I01
I40
F1.8717617988586426
tp203
a(I01
I40
F1.832097053527832
tp204
a(I01
I40
F1.8429930210113525
tp205
a(I01
I40
F1.8675918579101562
tp206
a(I01
I40
F1.8200969696044922
tp207
a(I01
I40
F1.8295989036560059
tp208
a(I01
I40
F1.8125839233398438
tp209
asb.